; ModuleID = '37/562.c'
source_filename = "37/562.c"
target datalayout = "e-m:e-p270:32:32-p271:32:32-p272:64:64-i64:64-f80:128-n8:16:32:64-S128"
target triple = "x86_64-pc-linux-gnu"

@.str = private unnamed_addr constant [3 x i8] c"%d\00", align 1
@.str.1 = private unnamed_addr constant [3 x i8] c"%s\00", align 1
@.str.2 = private unnamed_addr constant [4 x i8] c"%c\0A\00", align 1
@.str.3 = private unnamed_addr constant [4 x i8] c"no\0A\00", align 1

; Function Attrs: noinline nounwind uwtable
define dso_local void @main() #0 {
  %1 = alloca i32, align 4
  %2 = alloca i32, align 4
  %3 = alloca i32, align 4
  %4 = alloca i32, align 4
  %5 = alloca i32, align 4
  %6 = alloca i32, align 4
  %7 = alloca i32, align 4
  %8 = alloca [100000 x i8], align 16
  store i32 0, i32* %5, align 4
  %9 = call i32 (i8*, ...) @__isoc99_scanf(i8* getelementptr inbounds ([3 x i8], [3 x i8]* @.str, i64 0, i64 0), i32* %1)
  store i32 0, i32* %7, align 4
  br label %10

10:                                               ; preds = %70, %0
  %11 = load i32, i32* %7, align 4
  %12 = load i32, i32* %1, align 4
  %13 = icmp slt i32 %11, %12
  br i1 %13, label %14, label %73

14:                                               ; preds = %10
  %15 = getelementptr inbounds [100000 x i8], [100000 x i8]* %8, i64 0, i64 0
  %16 = call i32 (i8*, ...) @__isoc99_scanf(i8* getelementptr inbounds ([3 x i8], [3 x i8]* @.str.1, i64 0, i64 0), i8* %15)
  %17 = getelementptr inbounds [100000 x i8], [100000 x i8]* %8, i64 0, i64 0
  %18 = call i64 @strlen(i8* %17) #3
  %19 = trunc i64 %18 to i32
  store i32 %19, i32* %4, align 4
  store i32 0, i32* %6, align 4
  store i32 0, i32* %2, align 4
  br label %20

20:                                               ; preds = %61, %14
  %21 = load i32, i32* %2, align 4
  %22 = load i32, i32* %4, align 4
  %23 = icmp slt i32 %21, %22
  br i1 %23, label %24, label %64

24:                                               ; preds = %20
  store i32 0, i32* %5, align 4
  store i32 0, i32* %3, align 4
  br label %25

25:                                               ; preds = %47, %24
  %26 = load i32, i32* %3, align 4
  %27 = load i32, i32* %4, align 4
  %28 = icmp slt i32 %26, %27
  br i1 %28, label %29, label %50

29:                                               ; preds = %25
  %30 = load i32, i32* %2, align 4
  %31 = sext i32 %30 to i64
  %32 = getelementptr inbounds [100000 x i8], [100000 x i8]* %8, i64 0, i64 %31
  %33 = load i8, i8* %32, align 1
  %34 = sext i8 %33 to i32
  %35 = load i32, i32* %3, align 4
  %36 = sext i32 %35 to i64
  %37 = getelementptr inbounds [100000 x i8], [100000 x i8]* %8, i64 0, i64 %36
  %38 = load i8, i8* %37, align 1
  %39 = sext i8 %38 to i32
  %40 = icmp eq i32 %34, %39
  br i1 %40, label %41, label %46

41:                                               ; preds = %29
  %42 = load i32, i32* %2, align 4
  %43 = load i32, i32* %3, align 4
  %44 = icmp ne i32 %42, %43
  br i1 %44, label %45, label %46

45:                                               ; preds = %41
  store i32 1, i32* %5, align 4
  br label %50

46:                                               ; preds = %41, %29
  br label %47

47:                                               ; preds = %46
  %48 = load i32, i32* %3, align 4
  %49 = add nsw i32 %48, 1
  store i32 %49, i32* %3, align 4
  br label %25

50:                                               ; preds = %45, %25
  %51 = load i32, i32* %5, align 4
  %52 = icmp eq i32 %51, 0
  br i1 %52, label %53, label %60

53:                                               ; preds = %50
  %54 = load i32, i32* %2, align 4
  %55 = sext i32 %54 to i64
  %56 = getelementptr inbounds [100000 x i8], [100000 x i8]* %8, i64 0, i64 %55
  %57 = load i8, i8* %56, align 1
  %58 = sext i8 %57 to i32
  %59 = call i32 (i8*, ...) @printf(i8* getelementptr inbounds ([4 x i8], [4 x i8]* @.str.2, i64 0, i64 0), i32 %58)
  store i32 1, i32* %6, align 4
  br label %64

60:                                               ; preds = %50
  br label %61

61:                                               ; preds = %60
  %62 = load i32, i32* %2, align 4
  %63 = add nsw i32 %62, 1
  store i32 %63, i32* %2, align 4
  br label %20

64:                                               ; preds = %53, %20
  %65 = load i32, i32* %6, align 4
  %66 = icmp eq i32 %65, 0
  br i1 %66, label %67, label %69

67:                                               ; preds = %64
  %68 = call i32 (i8*, ...) @printf(i8* getelementptr inbounds ([4 x i8], [4 x i8]* @.str.3, i64 0, i64 0))
  br label %69

69:                                               ; preds = %67, %64
  br label %70

70:                                               ; preds = %69
  %71 = load i32, i32* %7, align 4
  %72 = add nsw i32 %71, 1
  store i32 %72, i32* %7, align 4
  br label %10

73:                                               ; preds = %10
  ret void
}

declare dso_local i32 @__isoc99_scanf(i8*, ...) #1

; Function Attrs: nounwind readonly
declare dso_local i64 @strlen(i8*) #2

declare dso_local i32 @printf(i8*, ...) #1


!llvm.module.flags = !{!0}
!llvm.ident = !{!1}

!0 = !{i32 1, !"wchar_size", i32 4}
!1 = !{!"clang version 10.0.0-4ubuntu1 "}
